; Function Attrs: nounwind uwtable
define internal noundef ptr @fake_rsa_st_open(ptr readnone captures(none) %0, ptr noundef readonly captures(none) %1) #1 {
  %3 = tail call i32 @strncmp(ptr noundef nonnull readonly dereferenceable(1) %1, ptr noundef nonnull dereferenceable(10) @fake_rsa_scheme, i64 noundef 9) #13
  %.not.i = icmp eq i32 %3, 0
  br i1 %.not.i, label %4, label %fake_rsa_st_open_ex.exit

4:                                                ; preds = %2
  %5 = tail call i32 @strncmp(ptr noundef nonnull readonly dereferenceable(1) %1, ptr noundef nonnull dereferenceable(20) @fake_rsa_openpwtest, i64 noundef 19) #13
  %6 = icmp eq i32 %5, 0
  br i1 %6, label %fake_rsa_st_open_ex.exit, label %7

7:                                                ; preds = %4
  %8 = tail call noalias ptr @CRYPTO_zalloc(i64 noundef 1, ptr noundef nonnull @.str.9, i32 noundef 577) #12
  %9 = tail call i32 @test_ptr(ptr noundef nonnull @.str.9, i32 noundef 578, ptr noundef nonnull @.str.47, ptr noundef %8) #12
  %.not13.i = icmp eq i32 %9, 0
  br i1 %.not13.i, label %fake_rsa_st_open_ex.exit, label %10

10:                                               ; preds = %7
  tail call void (ptr, i32, ptr, ...) @test_info(ptr noundef nonnull @.str.9, i32 noundef 581, ptr noundef nonnull @.str.48) #12
  br label %fake_rsa_st_open_ex.exit

fake_rsa_st_open_ex.exit:                         ; preds = %4, %2, %7, %10
  %.0.i = phi ptr [ %8, %10 ], [ null, %2 ], [ null, %7 ], [ null, %4 ]
  tail call void (ptr, i32, ptr, ...) @test_info(ptr noundef nonnull @.str.9, i32 noundef 592, ptr noundef nonnull @.str.42) #12
  ret ptr %.0.i
}